target datalayout = "e-m:e-p270:32:32-p271:32:32-p272:64:64-i64:64-i128:128-f80:128-n8:16:32:64-S128"
target triple = "x86_64-pc-linux-gnu"

; Function Attrs: inlinehint nounwind uwtable
define internal i32 @CompareWords(i64 noundef %0, i64 noundef %1) #5 {
  %3 = alloca i32, align 4
  %4 = alloca i64, align 8
  %5 = alloca i64, align 8
  store i64 %0, ptr %4, align 8, !tbaa !18
  store i64 %1, ptr %5, align 8, !tbaa !18
  %6 = load i64, ptr %4, align 8, !tbaa !18
  %7 = load i64, ptr %5, align 8, !tbaa !18
  %8 = icmp ugt i64 %6, %7
  br i1 %8, label %9, label %10

9:                                                ; preds = %2
  store i32 1, ptr %3, align 4
  br label %16

10:                                               ; preds = %2
  %11 = load i64, ptr %4, align 8, !tbaa !18
  %12 = load i64, ptr %5, align 8, !tbaa !18
  %13 = icmp ult i64 %11, %12
  br i1 %13, label %14, label %15

14:                                               ; preds = %10
  store i32 -1, ptr %3, align 4
  br label %16

15:                                               ; preds = %10
  store i32 0, ptr %3, align 4
  br label %16

16:                                               ; preds = %15, %14, %9
  %17 = load i32, ptr %3, align 4
  ret i32 %17
}

; Function Attrs: nounwind uwtable
define i32 @minTemp1_fast_moreThen5(ptr noundef %0, i32 noundef %1, i32 noundef %2, ptr noundef %3) #0 {
  %5 = alloca i32, align 4
  %6 = alloca ptr, align 8
  %7 = alloca i32, align 4
  %8 = alloca i32, align 4
  %9 = alloca ptr, align 8
  %10 = alloca i32, align 4
  %11 = alloca i32, align 4
  %12 = alloca i32, align 4
  %13 = alloca i32, align 4
  %14 = alloca i32, align 4
  %15 = alloca i32, align 4
  store ptr %0, ptr %6, align 8, !tbaa !3
  store i32 %1, ptr %7, align 4, !tbaa !8
  store i32 %2, ptr %8, align 4, !tbaa !8
  store ptr %3, ptr %9, align 8, !tbaa !12
  call void @llvm.lifetime.start.p0(i64 4, ptr %10) #7
  call void @llvm.lifetime.start.p0(i64 4, ptr %11) #7
  call void @llvm.lifetime.start.p0(i64 4, ptr %12) #7
  call void @llvm.lifetime.start.p0(i64 4, ptr %13) #7
  %16 = load i32, ptr %7, align 4, !tbaa !8
  %17 = sub nsw i32 %16, 6
  %18 = shl i32 1, %17
  store i32 %18, ptr %13, align 4, !tbaa !8
  call void @llvm.lifetime.start.p0(i64 4, ptr %14) #7
  %19 = load i32, ptr %13, align 4, !tbaa !8
  %20 = mul nsw i32 %19, 4
  store i32 %20, ptr %14, align 4, !tbaa !8
  %21 = load i32, ptr %8, align 4, !tbaa !8
  %22 = load i32, ptr %13, align 4, !tbaa !8
  %23 = sub nsw i32 %21, %22
  %24 = sub nsw i32 %23, 1
  store i32 %24, ptr %10, align 4, !tbaa !8
  br label %25

25:                                               ; preds = %73, %4
  %26 = load i32, ptr %10, align 4, !tbaa !8
  %27 = icmp sge i32 %26, 0
  br i1 %27, label %28, label %77

28:                                               ; preds = %25
  store i32 0, ptr %11, align 4, !tbaa !8
  br label %29

29:                                               ; preds = %69, %28
  %30 = load i32, ptr %11, align 4, !tbaa !8
  %31 = load i32, ptr %13, align 4, !tbaa !8
  %32 = icmp slt i32 %30, %31
  br i1 %32, label %33, label %72

33:                                               ; preds = %29
  %34 = load ptr, ptr %6, align 8, !tbaa !3
  %35 = load i32, ptr %10, align 4, !tbaa !8
  %36 = load i32, ptr %11, align 4, !tbaa !8
  %37 = sub nsw i32 %35, %36
  %38 = sext i32 %37 to i64
  %39 = getelementptr inbounds i64, ptr %34, i64 %38
  %40 = load i64, ptr %39, align 8, !tbaa !18
  %41 = load ptr, ptr %6, align 8, !tbaa !3
  %42 = load i32, ptr %10, align 4, !tbaa !8
  %43 = load i32, ptr %11, align 4, !tbaa !8
  %44 = sub nsw i32 %42, %43
  %45 = load i32, ptr %13, align 4, !tbaa !8
  %46 = sub nsw i32 %44, %45
  %47 = sext i32 %46 to i64
  %48 = getelementptr inbounds i64, ptr %41, i64 %47
  %49 = load i64, ptr %48, align 8, !tbaa !18
  %50 = call i32 @CompareWords(i64 noundef %40, i64 noundef %49)
  store i32 %50, ptr %12, align 4, !tbaa !8
  %51 = load i32, ptr %12, align 4, !tbaa !8
  %52 = icmp eq i32 %51, 0
  br i1 %52, label %53, label %54

53:                                               ; preds = %33
  br label %69

54:                                               ; preds = %33
  %55 = load i32, ptr %12, align 4, !tbaa !8
  %56 = icmp eq i32 %55, -1
  br i1 %56, label %57, label %63

57:                                               ; preds = %54
  %58 = load i32, ptr %10, align 4, !tbaa !8
  %59 = load i32, ptr %13, align 4, !tbaa !8
  %60 = add nsw i32 %58, %59
  %61 = add nsw i32 %60, 1
  %62 = load ptr, ptr %9, align 8, !tbaa !12
  store i32 %61, ptr %62, align 4, !tbaa !8
  store i32 1, ptr %5, align 4
  store i32 1, ptr %15, align 4
  br label %79

63:                                               ; preds = %54
  %64 = load i32, ptr %10, align 4, !tbaa !8
  %65 = load i32, ptr %13, align 4, !tbaa !8
  %66 = add nsw i32 %64, %65
  %67 = add nsw i32 %66, 1
  %68 = load ptr, ptr %9, align 8, !tbaa !12
  store i32 %67, ptr %68, align 4, !tbaa !8
  store i32 2, ptr %5, align 4
  store i32 1, ptr %15, align 4
  br label %79

69:                                               ; preds = %53
  %70 = load i32, ptr %11, align 4, !tbaa !8
  %71 = add nsw i32 %70, 1
  store i32 %71, ptr %11, align 4, !tbaa !8
  br label %29, !llvm.loop !33

72:                                               ; preds = %29
  br label %73

73:                                               ; preds = %72
  %74 = load i32, ptr %14, align 4, !tbaa !8
  %75 = load i32, ptr %10, align 4, !tbaa !8
  %76 = sub nsw i32 %75, %74
  store i32 %76, ptr %10, align 4, !tbaa !8
  br label %25, !llvm.loop !34

77:                                               ; preds = %25
  %78 = load ptr, ptr %9, align 8, !tbaa !12
  store i32 0, ptr %78, align 4, !tbaa !8
  store i32 1, ptr %5, align 4
  store i32 1, ptr %15, align 4
  br label %79

79:                                               ; preds = %77, %63, %57
  call void @llvm.lifetime.end.p0(i64 4, ptr %14) #7
  call void @llvm.lifetime.end.p0(i64 4, ptr %13) #7
  call void @llvm.lifetime.end.p0(i64 4, ptr %12) #7
  call void @llvm.lifetime.end.p0(i64 4, ptr %11) #7
  call void @llvm.lifetime.end.p0(i64 4, ptr %10) #7
  %80 = load i32, ptr %5, align 4
  ret i32 %80
}