; Function Attrs: nofree norecurse nosync nounwind memory(argmem: readwrite) uwtable
define range(i32 1, 3) i32 @minTemp1_fast_moreThen5(ptr noundef readonly captures(none) %0, i32 noundef %1, i32 noundef %2, ptr noundef writeonly captures(none) %3) local_unnamed_addr #5 {
  %5 = add nsw i32 %1, -6
  %6 = shl nuw i32 1, %5
  %.neg = shl i32 -4, %5
  %7 = xor i32 %6, -1
  %8 = add i32 %2, %7
  %9 = icmp slt i32 %8, 0
  %.not = icmp eq i32 %5, 31
  %or.cond = or i1 %9, %.not
  br i1 %or.cond, label %._crit_edge34, label %.preheader.us.preheader

.preheader.us.preheader:                          ; preds = %4
  %10 = sext i32 %6 to i64
  %smax = tail call i32 @llvm.smax.i32(i32 %6, i32 1)
  %wide.trip.count = zext nneg i32 %smax to i64
  br label %.preheader.us

.preheader.us:                                    ; preds = %.preheader.us.preheader, %._crit_edge.us
  %.02633.us = phi i32 [ %20, %._crit_edge.us ], [ %8, %.preheader.us.preheader ]
  %11 = zext nneg i32 %.02633.us to i64
  br label %12

12:                                               ; preds = %.preheader.us, %19
  %indvars.iv = phi i64 [ 0, %.preheader.us ], [ %indvars.iv.next, %19 ]
  %13 = sub nsw i64 %11, %indvars.iv
  %14 = getelementptr inbounds i64, ptr %0, i64 %13
  %15 = load i64, ptr %14, align 8, !tbaa !11
  %16 = sub nsw i64 %13, %10
  %17 = getelementptr inbounds i64, ptr %0, i64 %16
  %18 = load i64, ptr %17, align 8, !tbaa !11
  %.0.i.us = tail call range(i32 -1, 2) i32 @llvm.ucmp.i32.i64(i64 %15, i64 %18)
  switch i32 %.0.i.us, label %.split.us [
    i32 0, label %19
    i32 -1, label %.split36.us
  ]

19:                                               ; preds = %12
  %indvars.iv.next = add nuw nsw i64 %indvars.iv, 1
  %exitcond.not = icmp eq i64 %indvars.iv.next, %wide.trip.count
  br i1 %exitcond.not, label %._crit_edge.us, label %12, !llvm.loop !26

._crit_edge.us:                                   ; preds = %19
  %20 = add i32 %.02633.us, %.neg
  %21 = icmp sgt i32 %20, -1
  br i1 %21, label %.preheader.us, label %._crit_edge34, !llvm.loop !27

.split36.us:                                      ; preds = %12
  %22 = add nuw i32 %6, 1
  %23 = add i32 %22, %.02633.us
  br label %._crit_edge34

.split.us:                                        ; preds = %12
  %24 = add nuw i32 %6, 1
  %25 = add i32 %24, %.02633.us
  br label %._crit_edge34

._crit_edge34:                                    ; preds = %._crit_edge.us, %4, %.split.us, %.split36.us
  %.sink = phi i32 [ %25, %.split.us ], [ %23, %.split36.us ], [ 0, %4 ], [ 0, %._crit_edge.us ]
  %.0 = phi i32 [ 2, %.split.us ], [ 1, %.split36.us ], [ 1, %4 ], [ 1, %._crit_edge.us ]
  store i32 %.sink, ptr %3, align 4, !tbaa !6
  ret i32 %.0
}